target datalayout = "e-m:e-p270:32:32-p271:32:32-p272:64:64-i64:64-i128:128-f80:128-n8:16:32:64-S128"
target triple = "x86_64-pc-linux-gnu"

%struct.H5D_chunk_common_ud_t = type { ptr, ptr, ptr }
%struct.H5O_layout_chunk_t = type { i32, i8, i32, [33 x i32], i32, i32, i64, i64, [33 x i64], [33 x i64], [33 x i64], [33 x i64], %union.anon.0 }
%union.anon.0 = type { %struct.H5O_layout_chunk_earray_t }
%struct.H5O_layout_chunk_earray_t = type { %struct.anon.1, i32, [33 x i32], [33 x i64], [33 x i64] }
%struct.anon.1 = type { i8, i8, i8, i8, i8 }
%struct.H5D_chunk_ud_t = type { %struct.H5D_chunk_common_ud_t, i32, %struct.H5F_block_t, i32, i8, i64 }
%struct.H5F_block_t = type { i64, i64 }
%struct.H5D_btree_key_t = type { [33 x i64], i32, i32 }

@H5D_init_g = external global i8, align 1
@H5_libterm_g = external global i8, align 1

; Function Attrs: nounwind uwtable
define internal i32 @H5D__btree_new_node(ptr noundef %0, i32 noundef %1, ptr noundef %2, ptr noundef %3, ptr noundef %4, ptr noundef %5) #0 {
  %7 = alloca ptr, align 8
  %8 = alloca i32, align 4
  %9 = alloca ptr, align 8
  %10 = alloca ptr, align 8
  %11 = alloca ptr, align 8
  %12 = alloca ptr, align 8
  %13 = alloca ptr, align 8
  %14 = alloca ptr, align 8
  %15 = alloca ptr, align 8
  %16 = alloca i32, align 4
  %17 = alloca i32, align 4
  store ptr %0, ptr %7, align 8, !tbaa !56
  store i32 %1, ptr %8, align 4, !tbaa !12
  store ptr %2, ptr %9, align 8, !tbaa !41
  store ptr %3, ptr %10, align 8, !tbaa !41
  store ptr %4, ptr %11, align 8, !tbaa !41
  store ptr %5, ptr %12, align 8, !tbaa !51
  call void @llvm.lifetime.start.p0(i64 8, ptr %13) #8
  %18 = load ptr, ptr %9, align 8, !tbaa !41
  store ptr %18, ptr %13, align 8, !tbaa !78
  call void @llvm.lifetime.start.p0(i64 8, ptr %14) #8
  %19 = load ptr, ptr %11, align 8, !tbaa !41
  store ptr %19, ptr %14, align 8, !tbaa !78
  call void @llvm.lifetime.start.p0(i64 8, ptr %15) #8
  %20 = load ptr, ptr %10, align 8, !tbaa !41
  store ptr %20, ptr %15, align 8, !tbaa !37
  call void @llvm.lifetime.start.p0(i64 4, ptr %16) #8
  call void @llvm.lifetime.start.p0(i64 4, ptr %17) #8
  store i32 0, ptr %17, align 4, !tbaa !12
  %21 = load i8, ptr @H5D_init_g, align 1, !tbaa !14, !range !16, !noundef !17
  %22 = trunc i8 %21 to i1
  br i1 %22, label %27, label %23

23:                                               ; preds = %6
  %24 = load i8, ptr @H5_libterm_g, align 1, !tbaa !14, !range !16, !noundef !17
  %25 = trunc i8 %24 to i1
  %26 = xor i1 %25, true
  br label %27

27:                                               ; preds = %23, %6
  %28 = phi i1 [ true, %6 ], [ %26, %23 ]
  %29 = xor i1 %28, true
  %30 = xor i1 %29, true
  %31 = zext i1 %30 to i32
  %32 = sext i32 %31 to i64
  %33 = call i64 @llvm.expect.i64(i64 %32, i64 1)
  %34 = icmp ne i64 %33, 0
  br i1 %34, label %35, label %119

35:                                               ; preds = %27
  %36 = load ptr, ptr %15, align 8, !tbaa !37
  %37 = getelementptr inbounds nuw %struct.H5D_chunk_ud_t, ptr %36, i32 0, i32 2
  %38 = getelementptr inbounds nuw %struct.H5F_block_t, ptr %37, i32 0, i32 0
  %39 = load i64, ptr %38, align 8, !tbaa !82
  %40 = load ptr, ptr %12, align 8, !tbaa !51
  store i64 %39, ptr %40, align 8, !tbaa !10
  br label %41

41:                                               ; preds = %35
  %42 = load ptr, ptr %15, align 8, !tbaa !37
  %43 = getelementptr inbounds nuw %struct.H5D_chunk_ud_t, ptr %42, i32 0, i32 2
  %44 = getelementptr inbounds nuw %struct.H5F_block_t, ptr %43, i32 0, i32 1
  %45 = load i64, ptr %44, align 8, !tbaa !85
  %46 = trunc i64 %45 to i32
  %47 = load ptr, ptr %13, align 8, !tbaa !78
  %48 = getelementptr inbounds nuw %struct.H5D_btree_key_t, ptr %47, i32 0, i32 1
  store i32 %46, ptr %48, align 8, !tbaa !86
  br label %49

49:                                               ; preds = %41
  br label %50

50:                                               ; preds = %49
  %51 = load ptr, ptr %15, align 8, !tbaa !37
  %52 = getelementptr inbounds nuw %struct.H5D_chunk_ud_t, ptr %51, i32 0, i32 3
  %53 = load i32, ptr %52, align 8, !tbaa !88
  %54 = load ptr, ptr %13, align 8, !tbaa !78
  %55 = getelementptr inbounds nuw %struct.H5D_btree_key_t, ptr %54, i32 0, i32 2
  store i32 %53, ptr %55, align 4, !tbaa !89
  store i32 0, ptr %16, align 4, !tbaa !12
  br label %56

56:                                               ; preds = %79, %50
  %57 = load i32, ptr %16, align 4, !tbaa !12
  %58 = load ptr, ptr %15, align 8, !tbaa !37
  %59 = getelementptr inbounds nuw %struct.H5D_chunk_ud_t, ptr %58, i32 0, i32 0
  %60 = getelementptr inbounds nuw %struct.H5D_chunk_common_ud_t, ptr %59, i32 0, i32 0
  %61 = load ptr, ptr %60, align 8, !tbaa !90
  %62 = getelementptr inbounds nuw %struct.H5O_layout_chunk_t, ptr %61, i32 0, i32 2
  %63 = load i32, ptr %62, align 8, !tbaa !60
  %64 = icmp ult i32 %57, %63
  br i1 %64, label %65, label %82

65:                                               ; preds = %56
  %66 = load ptr, ptr %15, align 8, !tbaa !37
  %67 = getelementptr inbounds nuw %struct.H5D_chunk_ud_t, ptr %66, i32 0, i32 0
  %68 = getelementptr inbounds nuw %struct.H5D_chunk_common_ud_t, ptr %67, i32 0, i32 2
  %69 = load ptr, ptr %68, align 8, !tbaa !91
  %70 = load i32, ptr %16, align 4, !tbaa !12
  %71 = zext i32 %70 to i64
  %72 = getelementptr inbounds nuw i64, ptr %69, i64 %71
  %73 = load i64, ptr %72, align 8, !tbaa !10
  %74 = load ptr, ptr %13, align 8, !tbaa !78
  %75 = getelementptr inbounds nuw %struct.H5D_btree_key_t, ptr %74, i32 0, i32 0
  %76 = load i32, ptr %16, align 4, !tbaa !12
  %77 = zext i32 %76 to i64
  %78 = getelementptr inbounds nuw [33 x i64], ptr %75, i64 0, i64 %77
  store i64 %73, ptr %78, align 8, !tbaa !10
  br label %79

79:                                               ; preds = %65
  %80 = load i32, ptr %16, align 4, !tbaa !12
  %81 = add i32 %80, 1
  store i32 %81, ptr %16, align 4, !tbaa !12
  br label %56, !llvm.loop !92

82:                                               ; preds = %56
  %83 = load i32, ptr %8, align 4, !tbaa !12
  %84 = icmp ne i32 1, %83
  br i1 %84, label %85, label %118

85:                                               ; preds = %82
  %86 = load ptr, ptr %14, align 8, !tbaa !78
  %87 = getelementptr inbounds nuw %struct.H5D_btree_key_t, ptr %86, i32 0, i32 1
  store i32 0, ptr %87, align 8, !tbaa !86
  %88 = load ptr, ptr %14, align 8, !tbaa !78
  %89 = getelementptr inbounds nuw %struct.H5D_btree_key_t, ptr %88, i32 0, i32 2
  store i32 0, ptr %89, align 4, !tbaa !89
  store i32 0, ptr %16, align 4, !tbaa !12
  br label %90

90:                                               ; preds = %114, %85
  %91 = load i32, ptr %16, align 4, !tbaa !12
  %92 = load ptr, ptr %15, align 8, !tbaa !37
  %93 = getelementptr inbounds nuw %struct.H5D_chunk_ud_t, ptr %92, i32 0, i32 0
  %94 = getelementptr inbounds nuw %struct.H5D_chunk_common_ud_t, ptr %93, i32 0, i32 0
  %95 = load ptr, ptr %94, align 8, !tbaa !90
  %96 = getelementptr inbounds nuw %struct.H5O_layout_chunk_t, ptr %95, i32 0, i32 2
  %97 = load i32, ptr %96, align 8, !tbaa !60
  %98 = icmp ult i32 %91, %97
  br i1 %98, label %99, label %117

99:                                               ; preds = %90
  %100 = load ptr, ptr %15, align 8, !tbaa !37
  %101 = getelementptr inbounds nuw %struct.H5D_chunk_ud_t, ptr %100, i32 0, i32 0
  %102 = getelementptr inbounds nuw %struct.H5D_chunk_common_ud_t, ptr %101, i32 0, i32 2
  %103 = load ptr, ptr %102, align 8, !tbaa !91
  %104 = load i32, ptr %16, align 4, !tbaa !12
  %105 = zext i32 %104 to i64
  %106 = getelementptr inbounds nuw i64, ptr %103, i64 %105
  %107 = load i64, ptr %106, align 8, !tbaa !10
  %108 = add i64 %107, 1
  %109 = load ptr, ptr %14, align 8, !tbaa !78
  %110 = getelementptr inbounds nuw %struct.H5D_btree_key_t, ptr %109, i32 0, i32 0
  %111 = load i32, ptr %16, align 4, !tbaa !12
  %112 = zext i32 %111 to i64
  %113 = getelementptr inbounds nuw [33 x i64], ptr %110, i64 0, i64 %112
  store i64 %108, ptr %113, align 8, !tbaa !10
  br label %114

114:                                              ; preds = %99
  %115 = load i32, ptr %16, align 4, !tbaa !12
  %116 = add i32 %115, 1
  store i32 %116, ptr %16, align 4, !tbaa !12
  br label %90, !llvm.loop !93

117:                                              ; preds = %90
  br label %118

118:                                              ; preds = %117, %82
  br label %119

119:                                              ; preds = %118, %27
  %120 = load i32, ptr %17, align 4, !tbaa !12
  call void @llvm.lifetime.end.p0(i64 4, ptr %17) #8
  call void @llvm.lifetime.end.p0(i64 4, ptr %16) #8
  call void @llvm.lifetime.end.p0(i64 8, ptr %15) #8
  call void @llvm.lifetime.end.p0(i64 8, ptr %14) #8
  call void @llvm.lifetime.end.p0(i64 8, ptr %13) #8
  ret i32 %120
}