; Function Attrs: nofree norecurse nosync nounwind memory(read, argmem: readwrite, inaccessiblemem: none) uwtable
define internal noundef i32 @H5D__btree_new_node(ptr readnone captures(none) %0, i32 noundef %1, ptr noundef writeonly captures(none) %2, ptr noundef readonly captures(none) %3, ptr noundef writeonly captures(none) %4, ptr noundef writeonly captures(none) %5) #12 {
  %7 = load i8, ptr @H5D_init_g, align 1, !tbaa !3, !range !7, !noundef !8
  %8 = trunc nuw i8 %7 to i1
  %9 = load i8, ptr @H5_libterm_g, align 1, !range !7
  %10 = trunc nuw i8 %9 to i1
  %11 = xor i1 %10, true
  %12 = select i1 %8, i1 true, i1 %11
  br i1 %12, label %13, label %.loopexit, !prof !9

13:                                               ; preds = %6
  %14 = getelementptr inbounds nuw i8, ptr %3, i64 32
  %15 = load i64, ptr %14, align 8, !tbaa !53
  store i64 %15, ptr %5, align 8, !tbaa !20
  %16 = getelementptr inbounds nuw i8, ptr %3, i64 40
  %17 = load i64, ptr %16, align 8, !tbaa !56
  %18 = trunc i64 %17 to i32
  %19 = getelementptr inbounds nuw i8, ptr %2, i64 264
  store i32 %18, ptr %19, align 8, !tbaa !57
  %20 = getelementptr inbounds nuw i8, ptr %3, i64 48
  %21 = load i32, ptr %20, align 8, !tbaa !59
  %22 = getelementptr inbounds nuw i8, ptr %2, i64 268
  store i32 %21, ptr %22, align 4, !tbaa !60
  %23 = load ptr, ptr %3, align 8, !tbaa !61
  %24 = getelementptr inbounds nuw i8, ptr %23, i64 8
  %25 = load i32, ptr %24, align 8, !tbaa !40
  %.not30 = icmp eq i32 %25, 0
  br i1 %.not30, label %._crit_edge.thread, label %.lr.ph

.lr.ph:                                           ; preds = %13
  %26 = getelementptr inbounds nuw i8, ptr %3, i64 16
  %27 = load ptr, ptr %26, align 8, !tbaa !62
  %wide.trip.count = zext i32 %25 to i64
  br label %28

28:                                               ; preds = %.lr.ph, %28
  %indvars.iv = phi i64 [ 0, %.lr.ph ], [ %indvars.iv.next, %28 ]
  %29 = getelementptr inbounds nuw i64, ptr %27, i64 %indvars.iv
  %30 = load i64, ptr %29, align 8, !tbaa !20
  %31 = getelementptr inbounds nuw [33 x i64], ptr %2, i64 0, i64 %indvars.iv
  store i64 %30, ptr %31, align 8, !tbaa !20
  %indvars.iv.next = add nuw nsw i64 %indvars.iv, 1
  %exitcond.not = icmp eq i64 %indvars.iv.next, %wide.trip.count
  br i1 %exitcond.not, label %._crit_edge, label %28, !llvm.loop !63

._crit_edge:                                      ; preds = %28
  %.not = icmp eq i32 %1, 1
  br i1 %.not, label %.loopexit, label %.lr.ph29

._crit_edge.thread:                               ; preds = %13
  %.not38 = icmp eq i32 %1, 1
  br i1 %.not38, label %.loopexit, label %.thread

.thread:                                          ; preds = %._crit_edge.thread
  %32 = getelementptr inbounds nuw i8, ptr %4, i64 264
  store i32 0, ptr %32, align 8, !tbaa !57
  %33 = getelementptr inbounds nuw i8, ptr %4, i64 268
  store i32 0, ptr %33, align 4, !tbaa !60
  br label %.loopexit

.lr.ph29:                                         ; preds = %._crit_edge
  %34 = getelementptr inbounds nuw i8, ptr %4, i64 264
  store i32 0, ptr %34, align 8, !tbaa !57
  %35 = getelementptr inbounds nuw i8, ptr %4, i64 268
  store i32 0, ptr %35, align 4, !tbaa !60
  %36 = getelementptr inbounds nuw i8, ptr %3, i64 16
  %37 = load ptr, ptr %36, align 8, !tbaa !62
  %wide.trip.count36 = zext i32 %25 to i64
  br label %38

38:                                               ; preds = %.lr.ph29, %38
  %indvars.iv33 = phi i64 [ 0, %.lr.ph29 ], [ %indvars.iv.next34, %38 ]
  %39 = getelementptr inbounds nuw i64, ptr %37, i64 %indvars.iv33
  %40 = load i64, ptr %39, align 8, !tbaa !20
  %41 = add i64 %40, 1
  %42 = getelementptr inbounds nuw [33 x i64], ptr %4, i64 0, i64 %indvars.iv33
  store i64 %41, ptr %42, align 8, !tbaa !20
  %indvars.iv.next34 = add nuw nsw i64 %indvars.iv33, 1
  %exitcond37.not = icmp eq i64 %indvars.iv.next34, %wide.trip.count36
  br i1 %exitcond37.not, label %.loopexit, label %38, !llvm.loop !65

.loopexit:                                        ; preds = %38, %.thread, %._crit_edge.thread, %._crit_edge, %6
  ret i32 0
}